; Function Attrs: mustprogress nofree norecurse nosync nounwind willreturn memory(argmem: write) uwtable
define internal noundef zeroext i1 @V4L2_Init(ptr noundef writeonly captures(none) initializes((0, 64)) %0) #0 {
  store ptr @V4L2_DetectDevices, ptr %0, align 8
  %2 = getelementptr inbounds nuw i8, ptr %0, i64 8
  store ptr @V4L2_OpenDevice, ptr %2, align 8
  %3 = getelementptr inbounds nuw i8, ptr %0, i64 16
  store ptr @V4L2_CloseDevice, ptr %3, align 8
  %4 = getelementptr inbounds nuw i8, ptr %0, i64 24
  store ptr @V4L2_WaitDevice, ptr %4, align 8
  %5 = getelementptr inbounds nuw i8, ptr %0, i64 32
  store ptr @V4L2_AcquireFrame, ptr %5, align 8
  %6 = getelementptr inbounds nuw i8, ptr %0, i64 40
  store ptr @V4L2_ReleaseFrame, ptr %6, align 8
  %7 = getelementptr inbounds nuw i8, ptr %0, i64 48
  store ptr @V4L2_FreeDeviceHandle, ptr %7, align 8
  %8 = getelementptr inbounds nuw i8, ptr %0, i64 56
  store ptr @V4L2_Deinitialize, ptr %8, align 8
  ret i1 true
}